target datalayout = "e-m:e-p270:32:32-p271:32:32-p272:64:64-i64:64-i128:128-f80:128-n8:16:32:64-S128"
target triple = "x86_64-pc-linux-gnu"

; Function Attrs: mustprogress nounwind uwtable
define internal noundef i32 @_ZN7lodepngL9isICCwordEPKhmmPKc(ptr noundef %0, i64 noundef %1, i64 noundef %2, ptr noundef %3) #3 {
  %5 = alloca i32, align 4
  %6 = alloca ptr, align 8
  %7 = alloca i64, align 8
  %8 = alloca i64, align 8
  %9 = alloca ptr, align 8
  store ptr %0, ptr %6, align 8, !tbaa !13
  store i64 %1, ptr %7, align 8, !tbaa !15
  store i64 %2, ptr %8, align 8, !tbaa !15
  store ptr %3, ptr %9, align 8, !tbaa !13
  %10 = load i64, ptr %8, align 8, !tbaa !15
  %11 = add i64 %10, 4
  %12 = load i64, ptr %7, align 8, !tbaa !15
  %13 = icmp ugt i64 %11, %12
  br i1 %13, label %14, label %15

14:                                               ; preds = %4
  store i32 0, ptr %5, align 4
  br label %66

15:                                               ; preds = %4
  %16 = load ptr, ptr %6, align 8, !tbaa !13
  %17 = load i64, ptr %8, align 8, !tbaa !15
  %18 = add i64 %17, 0
  %19 = getelementptr inbounds nuw i8, ptr %16, i64 %18
  %20 = load i8, ptr %19, align 1, !tbaa !20
  %21 = zext i8 %20 to i32
  %22 = load ptr, ptr %9, align 8, !tbaa !13
  %23 = getelementptr inbounds i8, ptr %22, i64 0
  %24 = load i8, ptr %23, align 1, !tbaa !20
  %25 = zext i8 %24 to i32
  %26 = icmp eq i32 %21, %25
  br i1 %26, label %27, label %63

27:                                               ; preds = %15
  %28 = load ptr, ptr %6, align 8, !tbaa !13
  %29 = load i64, ptr %8, align 8, !tbaa !15
  %30 = add i64 %29, 1
  %31 = getelementptr inbounds nuw i8, ptr %28, i64 %30
  %32 = load i8, ptr %31, align 1, !tbaa !20
  %33 = zext i8 %32 to i32
  %34 = load ptr, ptr %9, align 8, !tbaa !13
  %35 = getelementptr inbounds i8, ptr %34, i64 1
  %36 = load i8, ptr %35, align 1, !tbaa !20
  %37 = zext i8 %36 to i32
  %38 = icmp eq i32 %33, %37
  br i1 %38, label %39, label %63

39:                                               ; preds = %27
  %40 = load ptr, ptr %6, align 8, !tbaa !13
  %41 = load i64, ptr %8, align 8, !tbaa !15
  %42 = add i64 %41, 2
  %43 = getelementptr inbounds nuw i8, ptr %40, i64 %42
  %44 = load i8, ptr %43, align 1, !tbaa !20
  %45 = zext i8 %44 to i32
  %46 = load ptr, ptr %9, align 8, !tbaa !13
  %47 = getelementptr inbounds i8, ptr %46, i64 2
  %48 = load i8, ptr %47, align 1, !tbaa !20
  %49 = zext i8 %48 to i32
  %50 = icmp eq i32 %45, %49
  br i1 %50, label %51, label %63

51:                                               ; preds = %39
  %52 = load ptr, ptr %6, align 8, !tbaa !13
  %53 = load i64, ptr %8, align 8, !tbaa !15
  %54 = add i64 %53, 3
  %55 = getelementptr inbounds nuw i8, ptr %52, i64 %54
  %56 = load i8, ptr %55, align 1, !tbaa !20
  %57 = zext i8 %56 to i32
  %58 = load ptr, ptr %9, align 8, !tbaa !13
  %59 = getelementptr inbounds i8, ptr %58, i64 3
  %60 = load i8, ptr %59, align 1, !tbaa !20
  %61 = zext i8 %60 to i32
  %62 = icmp eq i32 %57, %61
  br label %63

63:                                               ; preds = %51, %39, %27, %15
  %64 = phi i1 [ false, %39 ], [ false, %27 ], [ false, %15 ], [ %62, %51 ]
  %65 = zext i1 %64 to i32
  store i32 %65, ptr %5, align 4
  br label %66

66:                                               ; preds = %63, %14
  %67 = load i32, ptr %5, align 4
  ret i32 %67
}