; Function Attrs: mustprogress nofree norecurse nosync nounwind willreturn memory(argmem: read) uwtable
define internal fastcc noundef range(i32 0, 2) i32 @_ZN7lodepngL9isICCwordEPKhmmPKc(ptr noundef readonly captures(none) %0, i64 noundef range(i64 132, 4294967296) %1, i64 noundef %2, ptr noundef readonly captures(none) %3) unnamed_addr #6 {
  %5 = add i64 %2, 4
  %6 = icmp ugt i64 %5, %1
  br i1 %6, label %31, label %7

7:                                                ; preds = %4
  %8 = getelementptr inbounds nuw i8, ptr %0, i64 %2
  %9 = load i8, ptr %8, align 1, !tbaa !18
  %10 = load i8, ptr %3, align 1, !tbaa !18
  %11 = icmp eq i8 %9, %10
  br i1 %11, label %12, label %31

12:                                               ; preds = %7
  %13 = getelementptr i8, ptr %8, i64 1
  %14 = load i8, ptr %13, align 1, !tbaa !18
  %15 = getelementptr inbounds nuw i8, ptr %3, i64 1
  %16 = load i8, ptr %15, align 1, !tbaa !18
  %17 = icmp eq i8 %14, %16
  br i1 %17, label %18, label %31

18:                                               ; preds = %12
  %19 = getelementptr i8, ptr %8, i64 2
  %20 = load i8, ptr %19, align 1, !tbaa !18
  %21 = getelementptr inbounds nuw i8, ptr %3, i64 2
  %22 = load i8, ptr %21, align 1, !tbaa !18
  %23 = icmp eq i8 %20, %22
  br i1 %23, label %24, label %31

24:                                               ; preds = %18
  %25 = getelementptr i8, ptr %8, i64 3
  %26 = load i8, ptr %25, align 1, !tbaa !18
  %27 = getelementptr inbounds nuw i8, ptr %3, i64 3
  %28 = load i8, ptr %27, align 1, !tbaa !18
  %29 = icmp eq i8 %26, %28
  %30 = zext i1 %29 to i32
  br label %31

31:                                               ; preds = %7, %12, %18, %24, %4
  %.0 = phi i32 [ 0, %4 ], [ 0, %18 ], [ 0, %12 ], [ 0, %7 ], [ %30, %24 ]
  ret i32 %.0
}